; Function Attrs: mustprogress uwtable
define hidden void @_ZN4cvc58internal12TheoryEngine13notifyRestartEv(ptr noundef nonnull align 8 dereferenceable(1448) %this) local_unnamed_addr #3 align 2 {
entry:
  %d_interrupted = getelementptr inbounds i8, ptr %this, i64 1272
  store i8 0, ptr %d_interrupted, align 8
  %call.i = tail call noundef nonnull align 8 dereferenceable(88) ptr @_ZNK4cvc58internal6EnvObj9logicInfoEv(ptr noundef nonnull align 8 dereferenceable(16) %this)
  %call2.i = tail call noundef zeroext i1 @_ZNK4cvc58internal9LogicInfo15isTheoryEnabledENS0_6theory8TheoryIdE(ptr noundef nonnull align 8 dereferenceable(88) %call.i, i32 noundef 3)
  br i1 %call2.i, label %if.then, label %if.end

if.then:                                          ; preds = %entry
  %arrayidx.i = getelementptr inbounds i8, ptr %this, i64 48
  %0 = load ptr, ptr %arrayidx.i, align 8
  %vtable = load ptr, ptr %0, align 8
  %vfn = getelementptr inbounds i8, ptr %vtable, i64 248
  %1 = load ptr, ptr %vfn, align 8
  tail call void %1(ptr noundef nonnull align 8 dereferenceable(408) %0)
  br label %if.end

if.end:                                           ; preds = %if.then, %entry
  ret void
}